#include <math.h>
#include <stdio.h>
#include <stdlib.h>
#include <string.h>

double cal(int i,int n,double x)
{ double s;
  if (i==n)  return x;
  else{ s=1+1/cal(i+1,n,x);return s;}//1+1/cal(i+1,n,x);
}
int main()
{
	double x;int m,n,y,i,j,k;

	int a[10004]={0};
	for (i=2;i<=5000;i++)
		
	{
		if (!a[i]) 
			for(j=2;j*i<=10000;j++) 
				a[j*i]=1;
		
	}


	
   scanf("%d",&m); y=m/2;
   for(i=3;i<=y;i+=2)
   if (!(a[i])&&(!a[m-i])) printf("%d %d\n",i,m-i);
   
  
 
}
