; ModuleID = '43/624.c'
source_filename = "43/624.c"
target datalayout = "e-m:e-p270:32:32-p271:32:32-p272:64:64-i64:64-f80:128-n8:16:32:64-S128"
target triple = "x86_64-pc-linux-gnu"

@.str = private unnamed_addr constant [3 x i8] c"%d\00", align 1
@.str.1 = private unnamed_addr constant [7 x i8] c"%d %d\0A\00", align 1

; Function Attrs: noinline nounwind uwtable
define dso_local double @cal(i32 %0, i32 %1, double %2) #0 {
  %4 = alloca double, align 8
  %5 = alloca i32, align 4
  %6 = alloca i32, align 4
  %7 = alloca double, align 8
  %8 = alloca double, align 8
  store i32 %0, i32* %5, align 4
  store i32 %1, i32* %6, align 4
  store double %2, double* %7, align 8
  %9 = load i32, i32* %5, align 4
  %10 = load i32, i32* %6, align 4
  %11 = icmp eq i32 %9, %10
  br i1 %11, label %12, label %14

12:                                               ; preds = %3
  %13 = load double, double* %7, align 8
  store double %13, double* %4, align 8
  br label %23

14:                                               ; preds = %3
  %15 = load i32, i32* %5, align 4
  %16 = add nsw i32 %15, 1
  %17 = load i32, i32* %6, align 4
  %18 = load double, double* %7, align 8
  %19 = call double @cal(i32 %16, i32 %17, double %18)
  %20 = fdiv double 1.000000e+00, %19
  %21 = fadd double 1.000000e+00, %20
  store double %21, double* %8, align 8
  %22 = load double, double* %8, align 8
  store double %22, double* %4, align 8
  br label %23

23:                                               ; preds = %14, %12
  %24 = load double, double* %4, align 8
  ret double %24
}

; Function Attrs: noinline nounwind uwtable
define dso_local i32 @main() #0 {
  %1 = alloca i32, align 4
  %2 = alloca double, align 8
  %3 = alloca i32, align 4
  %4 = alloca i32, align 4
  %5 = alloca i32, align 4
  %6 = alloca i32, align 4
  %7 = alloca i32, align 4
  %8 = alloca i32, align 4
  %9 = alloca [10004 x i32], align 16
  store i32 0, i32* %1, align 4
  %10 = bitcast [10004 x i32]* %9 to i8*
  call void @llvm.memset.p0i8.i64(i8* align 16 %10, i8 0, i64 40016, i1 false)
  store i32 2, i32* %6, align 4
  br label %11

11:                                               ; preds = %37, %0
  %12 = load i32, i32* %6, align 4
  %13 = icmp sle i32 %12, 5000
  br i1 %13, label %14, label %40

14:                                               ; preds = %11
  %15 = load i32, i32* %6, align 4
  %16 = sext i32 %15 to i64
  %17 = getelementptr inbounds [10004 x i32], [10004 x i32]* %9, i64 0, i64 %16
  %18 = load i32, i32* %17, align 4
  %19 = icmp ne i32 %18, 0
  br i1 %19, label %36, label %20

20:                                               ; preds = %14
  store i32 2, i32* %7, align 4
  br label %21

21:                                               ; preds = %32, %20
  %22 = load i32, i32* %7, align 4
  %23 = load i32, i32* %6, align 4
  %24 = mul nsw i32 %22, %23
  %25 = icmp sle i32 %24, 10000
  br i1 %25, label %26, label %35

26:                                               ; preds = %21
  %27 = load i32, i32* %7, align 4
  %28 = load i32, i32* %6, align 4
  %29 = mul nsw i32 %27, %28
  %30 = sext i32 %29 to i64
  %31 = getelementptr inbounds [10004 x i32], [10004 x i32]* %9, i64 0, i64 %30
  store i32 1, i32* %31, align 4
  br label %32

32:                                               ; preds = %26
  %33 = load i32, i32* %7, align 4
  %34 = add nsw i32 %33, 1
  store i32 %34, i32* %7, align 4
  br label %21

35:                                               ; preds = %21
  br label %36

36:                                               ; preds = %35, %14
  br label %37

37:                                               ; preds = %36
  %38 = load i32, i32* %6, align 4
  %39 = add nsw i32 %38, 1
  store i32 %39, i32* %6, align 4
  br label %11

40:                                               ; preds = %11
  %41 = call i32 (i8*, ...) @__isoc99_scanf(i8* getelementptr inbounds ([3 x i8], [3 x i8]* @.str, i64 0, i64 0), i32* %3)
  %42 = load i32, i32* %3, align 4
  %43 = sdiv i32 %42, 2
  store i32 %43, i32* %5, align 4
  store i32 3, i32* %6, align 4
  br label %44

44:                                               ; preds = %69, %40
  %45 = load i32, i32* %6, align 4
  %46 = load i32, i32* %5, align 4
  %47 = icmp sle i32 %45, %46
  br i1 %47, label %48, label %72

48:                                               ; preds = %44
  %49 = load i32, i32* %6, align 4
  %50 = sext i32 %49 to i64
  %51 = getelementptr inbounds [10004 x i32], [10004 x i32]* %9, i64 0, i64 %50
  %52 = load i32, i32* %51, align 4
  %53 = icmp ne i32 %52, 0
  br i1 %53, label %68, label %54

54:                                               ; preds = %48
  %55 = load i32, i32* %3, align 4
  %56 = load i32, i32* %6, align 4
  %57 = sub nsw i32 %55, %56
  %58 = sext i32 %57 to i64
  %59 = getelementptr inbounds [10004 x i32], [10004 x i32]* %9, i64 0, i64 %58
  %60 = load i32, i32* %59, align 4
  %61 = icmp ne i32 %60, 0
  br i1 %61, label %68, label %62

62:                                               ; preds = %54
  %63 = load i32, i32* %6, align 4
  %64 = load i32, i32* %3, align 4
  %65 = load i32, i32* %6, align 4
  %66 = sub nsw i32 %64, %65
  %67 = call i32 (i8*, ...) @printf(i8* getelementptr inbounds ([7 x i8], [7 x i8]* @.str.1, i64 0, i64 0), i32 %63, i32 %66)
  br label %68

68:                                               ; preds = %62, %54, %48
  br label %69

69:                                               ; preds = %68
  %70 = load i32, i32* %6, align 4
  %71 = add nsw i32 %70, 2
  store i32 %71, i32* %6, align 4
  br label %44

72:                                               ; preds = %44
  %73 = load i32, i32* %1, align 4
  ret i32 %73
}

; Function Attrs: argmemonly nounwind willreturn
declare void @llvm.memset.p0i8.i64(i8* nocapture writeonly, i8, i64, i1 immarg) #1

declare dso_local i32 @__isoc99_scanf(i8*, ...) #2

declare dso_local i32 @printf(i8*, ...) #2


!llvm.module.flags = !{!0}
!llvm.ident = !{!1}

!0 = !{i32 1, !"wchar_size", i32 4}
!1 = !{!"clang version 10.0.0-4ubuntu1 "}
